; ModuleID = 'bench/cvc5/original/divisible.ll'
source_filename = "bench/cvc5/original/divisible.ll"
target datalayout = "e-m:e-p270:32:32-p271:32:32-p272:64:64-i64:64-i128:128-f80:128-n8:16:32:64-S128"
target triple = "x86_64-pc-linux-gnu"

@_ZN4cvc58internal9DivisibleC1ERKNS0_7IntegerE = hidden unnamed_addr alias void (ptr, ptr), ptr @_ZN4cvc58internal9DivisibleC2ERKNS0_7IntegerE

; Function Attrs: mustprogress uwtable
define hidden void @_ZN4cvc58internal9DivisibleC2ERKNS0_7IntegerE(ptr noundef nonnull align 8 dereferenceable(16) %0, ptr noundef nonnull align 8 dereferenceable(16) %1) unnamed_addr #0 align 2 {
  tail call void @__gmpz_init_set(ptr noundef nonnull align 8 dereferenceable(16) %0, ptr noundef nonnull align 8 dereferenceable(16) %1)
  ret void
}

declare void @__gmpz_init_set(ptr noundef, ptr noundef) local_unnamed_addr #1


!llvm.module.flags = !{!0, !1, !2}

!0 = !{i32 1, !"wchar_size", i32 4}
!1 = !{i32 8, !"PIC Level", i32 2}
!2 = !{i32 7, !"uwtable", i32 2}
